ccopy_reg
_reconstructor
p0
(csklearn.pipeline
Pipeline
p1
c__builtin__
object
p2
Ntp3
Rp4
(dp5
S'_sklearn_version'
p6
S'0.18.1'
p7
sS'steps'
p8
(lp9
(S'scaling'
p10
g0
(csklearn.preprocessing.data
StandardScaler
p11
g2
Ntp12
Rp13
(dp14
S'copy'
p15
I01
sg6
g7
sS'with_mean'
p16
I01
sS'with_std'
p17
I01
sbtp18
a(S'knn'
p19
g0
(csklearn.neighbors.classification
KNeighborsClassifier
p20
g2
Ntp21
Rp22
(dp23
S'n_neighbors'
p24
I3
sS'n_jobs'
p25
I1
sS'algorithm'
p26
S'auto'
p27
sg6
g7
sS'metric'
p28
S'minkowski'
p29
sS'metric_params'
p30
NsS'p'
p31
I2
sS'radius'
p32
NsS'leaf_size'
p33
I30
sS'_fit_method'
p34
NsS'weights'
p35
S'uniform'
p36
sS'_tree'
p37
NsS'_fit_X'
p38
Nsbtp39
asb.